; Function Attrs: mustprogress uwtable
define void @_ZN7rocksdb24PessimisticTransactionDB15AddColumnFamilyEPKNS_18ColumnFamilyHandleE(ptr noundef nonnull readonly align 8 captures(none) dereferenceable(520) %0, ptr noundef %1) local_unnamed_addr #4 align 2 {
  %3 = getelementptr inbounds nuw i8, ptr %0, i64 248
  %4 = load ptr, ptr %3, align 8, !tbaa !219
  %5 = load ptr, ptr %4, align 8, !tbaa !26
  %6 = getelementptr inbounds nuw i8, ptr %5, i64 40
  %7 = load ptr, ptr %6, align 8
  tail call void %7(ptr noundef nonnull align 8 dereferenceable(8) %4, ptr noundef %1)
  ret void
}